target datalayout = "e-m:e-p270:32:32-p271:32:32-p272:64:64-i64:64-i128:128-f80:128-n8:16:32:64-S128"
target triple = "x86_64-pc-linux-gnu"

%struct._SPI_connection = type { i64, ptr, i32, %struct.slist_head, ptr, ptr, ptr, i32, ptr, i8, i8, i64, ptr, i32 }
%struct.slist_head = type { %struct.slist_node }
%struct.slist_node = type { ptr }

@_SPI_current = internal global ptr null, align 8

; Function Attrs: nounwind uwtable
define dso_local zeroext i1 @SPI_inside_nonatomic_context() #0 {
  %1 = alloca i1, align 1
  %2 = load ptr, ptr @_SPI_current, align 8
  %3 = icmp eq ptr %2, null
  br i1 %3, label %4, label %5

4:                                                ; preds = %0
  store i1 false, ptr %1, align 1
  br label %15

5:                                                ; preds = %0
  %6 = load ptr, ptr @_SPI_current, align 8
  %7 = getelementptr inbounds nuw %struct._SPI_connection, ptr %6, i32 0, i32 9
  %8 = load i8, ptr %7, align 8, !range !4, !noundef !5
  %9 = trunc i8 %8 to i1
  br i1 %9, label %10, label %11

10:                                               ; preds = %5
  store i1 false, ptr %1, align 1
  br label %15

11:                                               ; preds = %5
  %12 = call zeroext i1 @IsSubTransaction()
  br i1 %12, label %13, label %14

13:                                               ; preds = %11
  store i1 false, ptr %1, align 1
  br label %15

14:                                               ; preds = %11
  store i1 true, ptr %1, align 1
  br label %15

15:                                               ; preds = %14, %13, %10, %4
  %16 = load i1, ptr %1, align 1
  ret i1 %16
}