; Function Attrs: nounwind uwtable
define dso_local zeroext i1 @SPI_inside_nonatomic_context() local_unnamed_addr #0 {
  %1 = load ptr, ptr @_SPI_current, align 8
  %2 = icmp eq ptr %1, null
  br i1 %2, label %9, label %3

3:                                                ; preds = %0
  %4 = getelementptr inbounds nuw i8, ptr %1, i64 72
  %5 = load i8, ptr %4, align 8, !range !4, !noundef !5
  %6 = trunc nuw i8 %5 to i1
  br i1 %6, label %9, label %7

7:                                                ; preds = %3
  %8 = tail call zeroext i1 @IsSubTransaction() #15
  %not. = xor i1 %8, true
  br label %9

9:                                                ; preds = %7, %3, %0
  %.0 = phi i1 [ false, %0 ], [ false, %3 ], [ %not., %7 ]
  ret i1 %.0
}